; Function Attrs: mustprogress nounwind uwtable
define hidden void @_ZN25InterpreterMacroAssembler5pop_lE8Register(ptr noundef nonnull align 8 dereferenceable(48) %0, i32 %1) local_unnamed_addr #0 align 2 {
  %3 = alloca %class.Address, align 16
  store <4 x i32> <i32 4, i32 -1, i32 -1, i32 -1>, ptr %3, align 16
  %4 = getelementptr inbounds i8, ptr %3, i64 16
  store i32 0, ptr %4, align 16
  %5 = getelementptr inbounds i8, ptr %3, i64 20
  store i8 0, ptr %5, align 4
  %6 = getelementptr inbounds i8, ptr %3, i64 24
  store ptr getelementptr inbounds inrange(-16, 72) (i8, ptr @_ZTV10Relocation, i64 16), ptr %6, align 8
  %7 = getelementptr inbounds i8, ptr %3, i64 32
  store ptr null, ptr %7, align 16
  %8 = getelementptr inbounds i8, ptr %3, i64 40
  store i32 0, ptr %8, align 8
  call void @_ZN9Assembler4movqE8Register7Address(ptr noundef nonnull align 8 dereferenceable(40) %0, i32 %1, ptr noundef nonnull %3) #8
  call void @_ZN14MacroAssembler6addptrE8Registeri(ptr noundef nonnull align 8 dereferenceable(40) %0, i32 4, i32 noundef 16) #8
  ret void
}